; ModuleID = '28/342.c'
source_filename = "28/342.c"
target datalayout = "e-m:e-p270:32:32-p271:32:32-p272:64:64-i64:64-f80:128-n8:16:32:64-S128"
target triple = "x86_64-pc-linux-gnu"

@.str = private unnamed_addr constant [3 x i8] c"%d\00", align 1
@.str.1 = private unnamed_addr constant [4 x i8] c",%d\00", align 1

; Function Attrs: noinline nounwind uwtable
define dso_local void @main() #0 {
  %1 = alloca [3000 x i8], align 16
  %2 = alloca i8*, align 8
  %3 = alloca i32, align 4
  %4 = getelementptr inbounds [3000 x i8], [3000 x i8]* %1, i64 0, i64 0
  store i8* %4, i8** %2, align 8
  %5 = getelementptr inbounds [3000 x i8], [3000 x i8]* %1, i64 0, i64 0
  %6 = call i32 (i8*, ...) bitcast (i32 (...)* @gets to i32 (i8*, ...)*)(i8* %5)
  store i32 0, i32* %3, align 4
  br label %7

7:                                                ; preds = %30, %0
  %8 = load i8*, i8** %2, align 8
  %9 = load i8, i8* %8, align 1
  %10 = sext i8 %9 to i32
  %11 = icmp eq i32 %10, 0
  br i1 %11, label %12, label %15

12:                                               ; preds = %7
  %13 = load i32, i32* %3, align 4
  %14 = call i32 (i8*, ...) @printf(i8* getelementptr inbounds ([3 x i8], [3 x i8]* @.str, i64 0, i64 0), i32 %13)
  br label %74

15:                                               ; preds = %7
  %16 = load i8*, i8** %2, align 8
  %17 = load i8, i8* %16, align 1
  %18 = sext i8 %17 to i32
  %19 = icmp eq i32 %18, 32
  br i1 %19, label %20, label %25

20:                                               ; preds = %15
  %21 = load i32, i32* %3, align 4
  %22 = call i32 (i8*, ...) @printf(i8* getelementptr inbounds ([3 x i8], [3 x i8]* @.str, i64 0, i64 0), i32 %21)
  %23 = load i8*, i8** %2, align 8
  %24 = getelementptr inbounds i8, i8* %23, i32 1
  store i8* %24, i8** %2, align 8
  br label %33

25:                                               ; preds = %15
  %26 = load i8*, i8** %2, align 8
  %27 = getelementptr inbounds i8, i8* %26, i32 1
  store i8* %27, i8** %2, align 8
  br label %28

28:                                               ; preds = %25
  br label %29

29:                                               ; preds = %28
  br label %30

30:                                               ; preds = %29
  %31 = load i32, i32* %3, align 4
  %32 = add nsw i32 %31, 1
  store i32 %32, i32* %3, align 4
  br label %7

33:                                               ; preds = %20
  br label %34

34:                                               ; preds = %73, %33
  store i32 0, i32* %3, align 4
  br label %35

35:                                               ; preds = %70, %34
  %36 = load i8*, i8** %2, align 8
  %37 = load i8, i8* %36, align 1
  %38 = sext i8 %37 to i32
  %39 = icmp eq i32 %38, 0
  br i1 %39, label %40, label %43

40:                                               ; preds = %35
  %41 = load i32, i32* %3, align 4
  %42 = call i32 (i8*, ...) @printf(i8* getelementptr inbounds ([4 x i8], [4 x i8]* @.str.1, i64 0, i64 0), i32 %41)
  br label %74

43:                                               ; preds = %35
  %44 = load i8*, i8** %2, align 8
  %45 = load i8, i8* %44, align 1
  %46 = sext i8 %45 to i32
  %47 = icmp eq i32 %46, 32
  br i1 %47, label %48, label %54

48:                                               ; preds = %43
  %49 = load i32, i32* %3, align 4
  %50 = icmp eq i32 %49, 0
  br i1 %50, label %51, label %54

51:                                               ; preds = %48
  %52 = load i8*, i8** %2, align 8
  %53 = getelementptr inbounds i8, i8* %52, i32 1
  store i8* %53, i8** %2, align 8
  br label %73

54:                                               ; preds = %48, %43
  %55 = load i8*, i8** %2, align 8
  %56 = load i8, i8* %55, align 1
  %57 = sext i8 %56 to i32
  %58 = icmp eq i32 %57, 32
  br i1 %58, label %59, label %64

59:                                               ; preds = %54
  %60 = load i32, i32* %3, align 4
  %61 = call i32 (i8*, ...) @printf(i8* getelementptr inbounds ([4 x i8], [4 x i8]* @.str.1, i64 0, i64 0), i32 %60)
  %62 = load i8*, i8** %2, align 8
  %63 = getelementptr inbounds i8, i8* %62, i32 1
  store i8* %63, i8** %2, align 8
  br label %73

64:                                               ; preds = %54
  %65 = load i8*, i8** %2, align 8
  %66 = getelementptr inbounds i8, i8* %65, i32 1
  store i8* %66, i8** %2, align 8
  br label %67

67:                                               ; preds = %64
  br label %68

68:                                               ; preds = %67
  br label %69

69:                                               ; preds = %68
  br label %70

70:                                               ; preds = %69
  %71 = load i32, i32* %3, align 4
  %72 = add nsw i32 %71, 1
  store i32 %72, i32* %3, align 4
  br label %35

73:                                               ; preds = %59, %51
  br label %34

74:                                               ; preds = %40, %12
  ret void
}

declare dso_local i32 @gets(...) #1

declare dso_local i32 @printf(i8*, ...) #1


!llvm.module.flags = !{!0}
!llvm.ident = !{!1}

!0 = !{i32 1, !"wchar_size", i32 4}
!1 = !{!"clang version 10.0.0-4ubuntu1 "}
